target datalayout = "e-m:e-p270:32:32-p271:32:32-p272:64:64-i64:64-i128:128-f80:128-n8:16:32:64-S128"
target triple = "x86_64-pc-linux-gnu"

%struct._lv_keyboard_t = type { %struct._lv_buttonmatrix_t, ptr, i32, i8 }
%struct._lv_buttonmatrix_t = type { %struct._lv_obj_t, ptr, ptr, ptr, i32, i32, i32, i8 }
%struct._lv_obj_t = type { ptr, ptr, ptr, ptr, ptr, %struct.lv_area_t, i32, i16, i16 }
%struct.lv_area_t = type { i32, i32, i32, i32 }

; Function Attrs: nounwind uwtable
define void @lv_keyboard_set_popovers(ptr noundef %0, i1 noundef zeroext %1) #0 {
  %3 = alloca ptr, align 8
  %4 = alloca i8, align 1
  %5 = alloca ptr, align 8
  %6 = alloca i32, align 4
  store ptr %0, ptr %3, align 8, !tbaa !8
  %7 = zext i1 %1 to i8
  store i8 %7, ptr %4, align 1, !tbaa !25
  call void @llvm.lifetime.start.p0(i64 8, ptr %5) #3
  %8 = load ptr, ptr %3, align 8, !tbaa !8
  store ptr %8, ptr %5, align 8, !tbaa !10
  %9 = load ptr, ptr %5, align 8, !tbaa !10
  %10 = getelementptr inbounds nuw %struct._lv_keyboard_t, ptr %9, i32 0, i32 3
  %11 = load i8, ptr %10, align 4
  %12 = and i8 %11, 1
  %13 = zext i8 %12 to i32
  %14 = load i8, ptr %4, align 1, !tbaa !25, !range !27, !noundef !28
  %15 = trunc i8 %14 to i1
  %16 = zext i1 %15 to i32
  %17 = icmp eq i32 %13, %16
  br i1 %17, label %18, label %19

18:                                               ; preds = %2
  store i32 1, ptr %6, align 4
  br label %30

19:                                               ; preds = %2
  %20 = load i8, ptr %4, align 1, !tbaa !25, !range !27, !noundef !28
  %21 = trunc i8 %20 to i1
  %22 = zext i1 %21 to i8
  %23 = load ptr, ptr %5, align 8, !tbaa !10
  %24 = getelementptr inbounds nuw %struct._lv_keyboard_t, ptr %23, i32 0, i32 3
  %25 = load i8, ptr %24, align 4
  %26 = and i8 %22, 1
  %27 = and i8 %25, -2
  %28 = or i8 %27, %26
  store i8 %28, ptr %24, align 4
  %29 = load ptr, ptr %3, align 8, !tbaa !8
  call void @lv_keyboard_update_ctrl_map(ptr noundef %29)
  store i32 0, ptr %6, align 4
  br label %30

30:                                               ; preds = %19, %18
  call void @llvm.lifetime.end.p0(i64 8, ptr %5) #3
  %31 = load i32, ptr %6, align 4
  switch i32 %31, label %33 [
    i32 0, label %32
    i32 1, label %32
  ]

32:                                               ; preds = %30, %30
  ret void

33:                                               ; preds = %30
  unreachable
}